target datalayout = "e-m:e-p270:32:32-p271:32:32-p272:64:64-i64:64-i128:128-f80:128-n8:16:32:64-S128"
target triple = "x86_64-pc-linux-gnu"

@MallocLimit = external global ptr, align 8

; Function Attrs: mustprogress nounwind uwtable
define hidden void @_ZN19MallocMemorySummary10initializeEv() #1 align 2 {
  %1 = load ptr, ptr @MallocLimit, align 8
  call void @_ZN18MallocLimitHandler10initializeEPKc(ptr noundef %1)
  ret void
}

; Function Attrs: mustprogress nounwind uwtable
define hidden noundef zeroext i1 @_ZN13MallocTracker10initializeE17NMT_TrackingLevel(i32 noundef %0) #1 align 2 {
  %2 = alloca i1, align 1
  %3 = alloca i32, align 4
  store i32 %0, ptr %3, align 4
  %4 = load i32, ptr %3, align 4
  %5 = icmp sge i32 %4, 2
  br i1 %5, label %6, label %7

6:                                                ; preds = %1
  call void @_ZN19MallocMemorySummary10initializeEv()
  br label %7

7:                                                ; preds = %6, %1
  %8 = load i32, ptr %3, align 4
  %9 = icmp eq i32 %8, 3
  br i1 %9, label %10, label %12

10:                                               ; preds = %7
  %11 = call noundef zeroext i1 @_ZN15MallocSiteTable10initializeEv()
  store i1 %11, ptr %2, align 1
  br label %13

12:                                               ; preds = %7
  store i1 true, ptr %2, align 1
  br label %13

13:                                               ; preds = %12, %10
  %14 = load i1, ptr %2, align 1
  ret i1 %14
}