; Function Attrs: mustprogress nounwind uwtable
define hidden noundef zeroext i1 @_ZN13MallocTracker10initializeE17NMT_TrackingLevel(i32 noundef %0) local_unnamed_addr #0 align 2 {
  %2 = icmp sgt i32 %0, 1
  br i1 %2, label %3, label %.thread

3:                                                ; preds = %1
  %4 = load ptr, ptr @MallocLimit, align 8
  tail call void @_ZN18MallocLimitHandler10initializeEPKc(ptr noundef %4) #10
  %5 = icmp eq i32 %0, 3
  br i1 %5, label %6, label %.thread

6:                                                ; preds = %3
  %7 = tail call noundef zeroext i1 @_ZN15MallocSiteTable10initializeEv() #10
  br label %.thread

.thread:                                          ; preds = %1, %3, %6
  %.0 = phi i1 [ %7, %6 ], [ true, %3 ], [ true, %1 ]
  ret i1 %.0
}